; Function Attrs: mustprogress nofree norecurse nounwind uwtable
define hidden void @_ZN14CSpaceCounters11update_usedEv(ptr noundef nonnull align 8 dereferenceable(48) %0) local_unnamed_addr #6 align 2 {
  %2 = getelementptr inbounds i8, ptr %0, i64 32
  %3 = load ptr, ptr %2, align 8
  %4 = load ptr, ptr %3, align 8
  %5 = getelementptr inbounds i8, ptr %3, i64 16
  %6 = load ptr, ptr %5, align 8
  %7 = ptrtoint ptr %6 to i64
  %8 = ptrtoint ptr %4 to i64
  %9 = sub i64 %7, %8
  %10 = getelementptr inbounds i8, ptr %0, i64 24
  store volatile i64 %9, ptr %10, align 8
  %11 = getelementptr inbounds i8, ptr %0, i64 8
  %12 = load ptr, ptr %11, align 8
  %13 = getelementptr inbounds i8, ptr %12, i64 40
  %14 = load ptr, ptr %13, align 8
  store i64 %9, ptr %14, align 8
  ret void
}